target datalayout = "e-m:e-p270:32:32-p271:32:32-p272:64:64-i64:64-i128:128-f80:128-n8:16:32:64-S128"
target triple = "x86_64-pc-linux-gnu"

%struct.ZDICT_params_t = type { i32, i32, i32 }

@repStartValue = internal constant [3 x i32] [i32 1, i32 4, i32 8], align 4
@stderr = external global ptr, align 8
@.str = private unnamed_addr constant [7 x i8] c"\0D%70s\0D\00", align 1
@.str.1 = private unnamed_addr constant [1 x i8] zeroinitializer, align 1
@.str.2 = private unnamed_addr constant [17 x i8] c"statistics ... \0A\00", align 1

; Function Attrs: nounwind uwtable
define internal i32 @ERR_isError(i64 noundef %0) #0 {
  %2 = alloca i64, align 8
  store i64 %0, ptr %2, align 8, !tbaa !4
  %3 = load i64, ptr %2, align 8, !tbaa !4
  %4 = icmp ugt i64 %3, -120
  %5 = zext i1 %4 to i32
  ret i32 %5
}

; Function Attrs: inlinehint nounwind uwtable
define internal i32 @MEM_swap32(i32 noundef %0) #1 {
  %2 = alloca i32, align 4
  store i32 %0, ptr %2, align 4, !tbaa !14
  %3 = load i32, ptr %2, align 4, !tbaa !14
  %4 = call i32 @llvm.bswap.i32(i32 %3)
  ret i32 %4
}

; Function Attrs: inlinehint nounwind uwtable
define internal void @MEM_write32(ptr noundef %0, i32 noundef %1) #1 {
  %3 = alloca ptr, align 8
  %4 = alloca i32, align 4
  store ptr %0, ptr %3, align 8, !tbaa !8
  store i32 %1, ptr %4, align 4, !tbaa !14
  %5 = load i32, ptr %4, align 4, !tbaa !14
  %6 = load ptr, ptr %3, align 8, !tbaa !8
  store i32 %5, ptr %6, align 1, !tbaa !14
  ret void
}

; Function Attrs: inlinehint nounwind uwtable
define internal i32 @MEM_isLittleEndian() #1 {
  ret i32 1
}

; Function Attrs: nounwind uwtable
define dso_local i32 @ZDICT_isError(i64 noundef %0) #0 {
  %2 = alloca i64, align 8
  store i64 %0, ptr %2, align 8, !tbaa !4
  %3 = load i64, ptr %2, align 8, !tbaa !4
  %4 = call i32 @ERR_isError(i64 noundef %3)
  ret i32 %4
}

; Function Attrs: inlinehint nounwind uwtable
define internal void @MEM_writeLE32(ptr noundef %0, i32 noundef %1) #1 {
  %3 = alloca ptr, align 8
  %4 = alloca i32, align 4
  store ptr %0, ptr %3, align 8, !tbaa !8
  store i32 %1, ptr %4, align 4, !tbaa !14
  %5 = call i32 @MEM_isLittleEndian()
  %6 = icmp ne i32 %5, 0
  br i1 %6, label %7, label %10

7:                                                ; preds = %2
  %8 = load ptr, ptr %3, align 8, !tbaa !8
  %9 = load i32, ptr %4, align 4, !tbaa !14
  call void @MEM_write32(ptr noundef %8, i32 noundef %9)
  br label %14

10:                                               ; preds = %2
  %11 = load ptr, ptr %3, align 8, !tbaa !8
  %12 = load i32, ptr %4, align 4, !tbaa !14
  %13 = call i32 @MEM_swap32(i32 noundef %12)
  call void @MEM_write32(ptr noundef %11, i32 noundef %13)
  br label %14

14:                                               ; preds = %10, %7
  ret void
}

; Function Attrs: nounwind uwtable
define internal i32 @ZDICT_maxRep(ptr noundef %0) #0 {
  %2 = alloca ptr, align 8
  %3 = alloca i32, align 4
  %4 = alloca i32, align 4
  store ptr %0, ptr %2, align 8, !tbaa !10
  call void @llvm.lifetime.start.p0(i64 4, ptr %3) #9
  %5 = load ptr, ptr %2, align 8, !tbaa !10
  %6 = getelementptr inbounds i32, ptr %5, i64 0
  %7 = load i32, ptr %6, align 4, !tbaa !14
  store i32 %7, ptr %3, align 4, !tbaa !14
  call void @llvm.lifetime.start.p0(i64 4, ptr %4) #9
  store i32 1, ptr %4, align 4, !tbaa !14
  br label %8

8:                                                ; preds = %29, %1
  %9 = load i32, ptr %4, align 4, !tbaa !14
  %10 = icmp slt i32 %9, 3
  br i1 %10, label %11, label %32

11:                                               ; preds = %8
  %12 = load i32, ptr %3, align 4, !tbaa !14
  %13 = load ptr, ptr %2, align 8, !tbaa !10
  %14 = load i32, ptr %4, align 4, !tbaa !14
  %15 = sext i32 %14 to i64
  %16 = getelementptr inbounds i32, ptr %13, i64 %15
  %17 = load i32, ptr %16, align 4, !tbaa !14
  %18 = icmp ugt i32 %12, %17
  br i1 %18, label %19, label %21

19:                                               ; preds = %11
  %20 = load i32, ptr %3, align 4, !tbaa !14
  br label %27

21:                                               ; preds = %11
  %22 = load ptr, ptr %2, align 8, !tbaa !10
  %23 = load i32, ptr %4, align 4, !tbaa !14
  %24 = sext i32 %23 to i64
  %25 = getelementptr inbounds i32, ptr %22, i64 %24
  %26 = load i32, ptr %25, align 4, !tbaa !14
  br label %27

27:                                               ; preds = %21, %19
  %28 = phi i32 [ %20, %19 ], [ %26, %21 ]
  store i32 %28, ptr %3, align 4, !tbaa !14
  br label %29

29:                                               ; preds = %27
  %30 = load i32, ptr %4, align 4, !tbaa !14
  %31 = add nsw i32 %30, 1
  store i32 %31, ptr %4, align 4, !tbaa !14
  br label %8, !llvm.loop !24

32:                                               ; preds = %8
  %33 = load i32, ptr %3, align 4, !tbaa !14
  call void @llvm.lifetime.end.p0(i64 4, ptr %4) #9
  call void @llvm.lifetime.end.p0(i64 4, ptr %3) #9
  ret i32 %33
}

; Function Attrs: nounwind uwtable
define dso_local i64 @ZDICT_finalizeDictionary(ptr noundef %0, i64 noundef %1, ptr noundef %2, i64 noundef %3, ptr noundef %4, ptr noundef %5, i32 noundef %6, ptr noundef byval(%struct.ZDICT_params_t) align 8 %7) #0 {
  %9 = alloca i64, align 8
  %10 = alloca ptr, align 8
  %11 = alloca i64, align 8
  %12 = alloca ptr, align 8
  %13 = alloca i64, align 8
  %14 = alloca ptr, align 8
  %15 = alloca ptr, align 8
  %16 = alloca i32, align 4
  %17 = alloca i64, align 8
  %18 = alloca [256 x i8], align 16
  %19 = alloca i32, align 4
  %20 = alloca i32, align 4
  %21 = alloca i64, align 8
  %22 = alloca i64, align 8
  %23 = alloca i32, align 4
  %24 = alloca i64, align 8
  %25 = alloca i32, align 4
  %26 = alloca i32, align 4
  %27 = alloca i64, align 8
  %28 = alloca i64, align 8
  %29 = alloca ptr, align 8
  %30 = alloca ptr, align 8
  %31 = alloca ptr, align 8
  store ptr %0, ptr %10, align 8, !tbaa !8
  store i64 %1, ptr %11, align 8, !tbaa !4
  store ptr %2, ptr %12, align 8, !tbaa !8
  store i64 %3, ptr %13, align 8, !tbaa !4
  store ptr %4, ptr %14, align 8, !tbaa !8
  store ptr %5, ptr %15, align 8, !tbaa !12
  store i32 %6, ptr %16, align 4, !tbaa !14
  call void @llvm.lifetime.start.p0(i64 8, ptr %17) #9
  call void @llvm.lifetime.start.p0(i64 256, ptr %18) #9
  call void @llvm.lifetime.start.p0(i64 4, ptr %19) #9
  %32 = getelementptr inbounds nuw %struct.ZDICT_params_t, ptr %7, i32 0, i32 0
  %33 = load i32, ptr %32, align 8, !tbaa !16
  %34 = icmp eq i32 %33, 0
  br i1 %34, label %35, label %36

35:                                               ; preds = %8
  br label %39

36:                                               ; preds = %8
  %37 = getelementptr inbounds nuw %struct.ZDICT_params_t, ptr %7, i32 0, i32 0
  %38 = load i32, ptr %37, align 8, !tbaa !16
  br label %39

39:                                               ; preds = %36, %35
  %40 = phi i32 [ 3, %35 ], [ %38, %36 ]
  store i32 %40, ptr %19, align 4, !tbaa !14
  call void @llvm.lifetime.start.p0(i64 4, ptr %20) #9
  %41 = getelementptr inbounds nuw %struct.ZDICT_params_t, ptr %7, i32 0, i32 1
  %42 = load i32, ptr %41, align 4, !tbaa !18
  store i32 %42, ptr %20, align 4, !tbaa !14
  call void @llvm.lifetime.start.p0(i64 8, ptr %21) #9
  %43 = call i32 @ZDICT_maxRep(ptr noundef @repStartValue)
  %44 = zext i32 %43 to i64
  store i64 %44, ptr %21, align 8, !tbaa !4
  call void @llvm.lifetime.start.p0(i64 8, ptr %22) #9
  %45 = load i64, ptr %11, align 8, !tbaa !4
  %46 = load i64, ptr %13, align 8, !tbaa !4
  %47 = icmp ult i64 %45, %46
  br i1 %47, label %48, label %49

48:                                               ; preds = %39
  store i64 -70, ptr %9, align 8
  store i32 1, ptr %23, align 4
  br label %163

49:                                               ; preds = %39
  %50 = load i64, ptr %11, align 8, !tbaa !4
  %51 = icmp ult i64 %50, 256
  br i1 %51, label %52, label %53

52:                                               ; preds = %49
  store i64 -70, ptr %9, align 8
  store i32 1, ptr %23, align 4
  br label %163

53:                                               ; preds = %49
  %54 = getelementptr inbounds [256 x i8], ptr %18, i64 0, i64 0
  call void @MEM_writeLE32(ptr noundef %54, i32 noundef -332356553)
  call void @llvm.lifetime.start.p0(i64 8, ptr %24) #9
  %55 = load ptr, ptr %12, align 8, !tbaa !8
  %56 = load i64, ptr %13, align 8, !tbaa !4
  %57 = call i64 @ZSTD_XXH64(ptr noundef %55, i64 noundef %56, i64 noundef 0)
  store i64 %57, ptr %24, align 8, !tbaa !4
  call void @llvm.lifetime.start.p0(i64 4, ptr %25) #9
  %58 = load i64, ptr %24, align 8, !tbaa !4
  %59 = urem i64 %58, 2147450880
  %60 = add i64 %59, 32768
  %61 = trunc i64 %60 to i32
  store i32 %61, ptr %25, align 4, !tbaa !14
  call void @llvm.lifetime.start.p0(i64 4, ptr %26) #9
  %62 = getelementptr inbounds nuw %struct.ZDICT_params_t, ptr %7, i32 0, i32 2
  %63 = load i32, ptr %62, align 8, !tbaa !19
  %64 = icmp ne i32 %63, 0
  br i1 %64, label %65, label %68

65:                                               ; preds = %53
  %66 = getelementptr inbounds nuw %struct.ZDICT_params_t, ptr %7, i32 0, i32 2
  %67 = load i32, ptr %66, align 8, !tbaa !19
  br label %70

68:                                               ; preds = %53
  %69 = load i32, ptr %25, align 4, !tbaa !14
  br label %70

70:                                               ; preds = %68, %65
  %71 = phi i32 [ %67, %65 ], [ %69, %68 ]
  store i32 %71, ptr %26, align 4, !tbaa !14
  %72 = getelementptr inbounds [256 x i8], ptr %18, i64 0, i64 0
  %73 = getelementptr inbounds i8, ptr %72, i64 4
  %74 = load i32, ptr %26, align 4, !tbaa !14
  call void @MEM_writeLE32(ptr noundef %73, i32 noundef %74)
  call void @llvm.lifetime.end.p0(i64 4, ptr %26) #9
  call void @llvm.lifetime.end.p0(i64 4, ptr %25) #9
  call void @llvm.lifetime.end.p0(i64 8, ptr %24) #9
  store i64 8, ptr %17, align 8, !tbaa !4
  %75 = load i32, ptr %20, align 4, !tbaa !14
  %76 = icmp uge i32 %75, 2
  br i1 %76, label %77, label %82

77:                                               ; preds = %70
  %78 = load ptr, ptr @stderr, align 8, !tbaa !20
  %79 = call i32 (ptr, ptr, ...) @fprintf(ptr noundef %78, ptr noundef @.str, ptr noundef @.str.1) #9
  %80 = load ptr, ptr @stderr, align 8, !tbaa !20
  %81 = call i32 @fflush(ptr noundef %80)
  br label %82

82:                                               ; preds = %77, %70
  %83 = load i32, ptr %20, align 4, !tbaa !14
  %84 = icmp uge i32 %83, 2
  br i1 %84, label %85, label %90

85:                                               ; preds = %82
  %86 = load ptr, ptr @stderr, align 8, !tbaa !20
  %87 = call i32 (ptr, ptr, ...) @fprintf(ptr noundef %86, ptr noundef @.str.2) #9
  %88 = load ptr, ptr @stderr, align 8, !tbaa !20
  %89 = call i32 @fflush(ptr noundef %88)
  br label %90

90:                                               ; preds = %85, %82
  call void @llvm.lifetime.start.p0(i64 8, ptr %27) #9
  %91 = getelementptr inbounds [256 x i8], ptr %18, i64 0, i64 0
  %92 = load i64, ptr %17, align 8, !tbaa !4
  %93 = getelementptr inbounds nuw i8, ptr %91, i64 %92
  %94 = load i64, ptr %17, align 8, !tbaa !4
  %95 = sub i64 256, %94
  %96 = load i32, ptr %19, align 4, !tbaa !14
  %97 = load ptr, ptr %14, align 8, !tbaa !8
  %98 = load ptr, ptr %15, align 8, !tbaa !12
  %99 = load i32, ptr %16, align 4, !tbaa !14
  %100 = load ptr, ptr %12, align 8, !tbaa !8
  %101 = load i64, ptr %13, align 8, !tbaa !4
  %102 = load i32, ptr %20, align 4, !tbaa !14
  %103 = call i64 @ZDICT_analyzeEntropy(ptr noundef %93, i64 noundef %95, i32 noundef %96, ptr noundef %97, ptr noundef %98, i32 noundef %99, ptr noundef %100, i64 noundef %101, i32 noundef %102)
  store i64 %103, ptr %27, align 8, !tbaa !4
  %104 = load i64, ptr %27, align 8, !tbaa !4
  %105 = call i32 @ZDICT_isError(i64 noundef %104)
  %106 = icmp ne i32 %105, 0
  br i1 %106, label %107, label %109

107:                                              ; preds = %90
  %108 = load i64, ptr %27, align 8, !tbaa !4
  store i64 %108, ptr %9, align 8
  store i32 1, ptr %23, align 4
  br label %113

109:                                              ; preds = %90
  %110 = load i64, ptr %27, align 8, !tbaa !4
  %111 = load i64, ptr %17, align 8, !tbaa !4
  %112 = add i64 %111, %110
  store i64 %112, ptr %17, align 8, !tbaa !4
  store i32 0, ptr %23, align 4
  br label %113

113:                                              ; preds = %109, %107
  call void @llvm.lifetime.end.p0(i64 8, ptr %27) #9
  %114 = load i32, ptr %23, align 4
  switch i32 %114, label %163 [
    i32 0, label %115
  ]

115:                                              ; preds = %113
  %116 = load i64, ptr %17, align 8, !tbaa !4
  %117 = load i64, ptr %13, align 8, !tbaa !4
  %118 = add i64 %116, %117
  %119 = load i64, ptr %11, align 8, !tbaa !4
  %120 = icmp ugt i64 %118, %119
  br i1 %120, label %121, label %125

121:                                              ; preds = %115
  %122 = load i64, ptr %11, align 8, !tbaa !4
  %123 = load i64, ptr %17, align 8, !tbaa !4
  %124 = sub i64 %122, %123
  store i64 %124, ptr %13, align 8, !tbaa !4
  br label %125

125:                                              ; preds = %121, %115
  %126 = load i64, ptr %13, align 8, !tbaa !4
  %127 = load i64, ptr %21, align 8, !tbaa !4
  %128 = icmp ult i64 %126, %127
  br i1 %128, label %129, label %140

129:                                              ; preds = %125
  %130 = load i64, ptr %17, align 8, !tbaa !4
  %131 = load i64, ptr %21, align 8, !tbaa !4
  %132 = add i64 %130, %131
  %133 = load i64, ptr %11, align 8, !tbaa !4
  %134 = icmp ugt i64 %132, %133
  br i1 %134, label %135, label %136

135:                                              ; preds = %129
  store i64 -70, ptr %9, align 8
  store i32 1, ptr %23, align 4
  br label %163

136:                                              ; preds = %129
  %137 = load i64, ptr %21, align 8, !tbaa !4
  %138 = load i64, ptr %13, align 8, !tbaa !4
  %139 = sub i64 %137, %138
  store i64 %139, ptr %22, align 8, !tbaa !4
  br label %141

140:                                              ; preds = %125
  store i64 0, ptr %22, align 8, !tbaa !4
  br label %141

141:                                              ; preds = %140, %136
  call void @llvm.lifetime.start.p0(i64 8, ptr %28) #9
  %142 = load i64, ptr %17, align 8, !tbaa !4
  %143 = load i64, ptr %22, align 8, !tbaa !4
  %144 = add i64 %142, %143
  %145 = load i64, ptr %13, align 8, !tbaa !4
  %146 = add i64 %144, %145
  store i64 %146, ptr %28, align 8, !tbaa !4
  call void @llvm.lifetime.start.p0(i64 8, ptr %29) #9
  %147 = load ptr, ptr %10, align 8, !tbaa !8
  store ptr %147, ptr %29, align 8, !tbaa !22
  call void @llvm.lifetime.start.p0(i64 8, ptr %30) #9
  %148 = load ptr, ptr %29, align 8, !tbaa !22
  %149 = load i64, ptr %17, align 8, !tbaa !4
  %150 = getelementptr inbounds nuw i8, ptr %148, i64 %149
  store ptr %150, ptr %30, align 8, !tbaa !22
  call void @llvm.lifetime.start.p0(i64 8, ptr %31) #9
  %151 = load ptr, ptr %30, align 8, !tbaa !22
  %152 = load i64, ptr %22, align 8, !tbaa !4
  %153 = getelementptr inbounds nuw i8, ptr %151, i64 %152
  store ptr %153, ptr %31, align 8, !tbaa !22
  %154 = load ptr, ptr %31, align 8, !tbaa !22
  %155 = load ptr, ptr %12, align 8, !tbaa !8
  %156 = load i64, ptr %13, align 8, !tbaa !4
  call void @llvm.memmove.p0.p0.i64(ptr align 1 %154, ptr align 1 %155, i64 %156, i1 false)
  %157 = load ptr, ptr %29, align 8, !tbaa !22
  %158 = getelementptr inbounds [256 x i8], ptr %18, i64 0, i64 0
  %159 = load i64, ptr %17, align 8, !tbaa !4
  call void @llvm.memcpy.p0.p0.i64(ptr align 1 %157, ptr align 16 %158, i64 %159, i1 false)
  %160 = load ptr, ptr %30, align 8, !tbaa !22
  %161 = load i64, ptr %22, align 8, !tbaa !4
  call void @llvm.memset.p0.i64(ptr align 1 %160, i8 0, i64 %161, i1 false)
  %162 = load i64, ptr %28, align 8, !tbaa !4
  store i64 %162, ptr %9, align 8
  store i32 1, ptr %23, align 4
  call void @llvm.lifetime.end.p0(i64 8, ptr %31) #9
  call void @llvm.lifetime.end.p0(i64 8, ptr %30) #9
  call void @llvm.lifetime.end.p0(i64 8, ptr %29) #9
  call void @llvm.lifetime.end.p0(i64 8, ptr %28) #9
  br label %163

163:                                              ; preds = %141, %135, %113, %52, %48
  call void @llvm.lifetime.end.p0(i64 8, ptr %22) #9
  call void @llvm.lifetime.end.p0(i64 8, ptr %21) #9
  call void @llvm.lifetime.end.p0(i64 4, ptr %20) #9
  call void @llvm.lifetime.end.p0(i64 4, ptr %19) #9
  call void @llvm.lifetime.end.p0(i64 256, ptr %18) #9
  call void @llvm.lifetime.end.p0(i64 8, ptr %17) #9
  %164 = load i64, ptr %9, align 8
  ret i64 %164
}