; Function Attrs: nounwind uwtable
define dso_local i64 @ZDICT_finalizeDictionary(ptr noundef writeonly captures(none) %0, i64 noundef %1, ptr noundef %2, i64 noundef %3, ptr noundef %4, ptr noundef readonly captures(none) %5, i32 noundef %6, ptr noundef readonly byval(%struct.ZDICT_params_t) align 8 captures(none) %7) local_unnamed_addr #1 {
  %9 = alloca [256 x i8], align 16
  call void @llvm.lifetime.start.p0(i64 256, ptr nonnull %9) #15
  %10 = load i32, ptr %7, align 8, !tbaa !8
  %11 = icmp eq i32 %10, 0
  %12 = select i1 %11, i32 3, i32 %10
  %13 = getelementptr inbounds nuw i8, ptr %7, i64 4
  %14 = load i32, ptr %13, align 4, !tbaa !10
  %15 = icmp ult i64 %1, %3
  %16 = icmp ult i64 %1, 256
  %or.cond = or i1 %16, %15
  br i1 %or.cond, label %55, label %17

17:                                               ; preds = %8
  store i32 -332356553, ptr %9, align 16, !tbaa !4
  %18 = tail call i64 @ZSTD_XXH64(ptr noundef %2, i64 noundef %3, i64 noundef 0) #15
  %19 = urem i64 %18, 2147450880
  %20 = trunc nuw nsw i64 %19 to i32
  %21 = add nuw nsw i32 %20, 32768
  %22 = getelementptr inbounds nuw i8, ptr %7, i64 8
  %23 = load i32, ptr %22, align 8, !tbaa !11
  %.not = icmp eq i32 %23, 0
  %24 = select i1 %.not, i32 %21, i32 %23
  %25 = getelementptr inbounds nuw i8, ptr %9, i64 4
  store i32 %24, ptr %25, align 4, !tbaa !4
  %26 = icmp ugt i32 %14, 1
  br i1 %26, label %27, label %.critedge

27:                                               ; preds = %17
  %28 = load ptr, ptr @stderr, align 8, !tbaa !12
  %29 = tail call i32 (ptr, ptr, ...) @fprintf(ptr noundef %28, ptr noundef nonnull @.str, ptr noundef nonnull @.str.1) #17
  %30 = load ptr, ptr @stderr, align 8, !tbaa !12
  %31 = tail call i32 @fflush(ptr noundef %30)
  %32 = load ptr, ptr @stderr, align 8, !tbaa !12
  %33 = tail call i64 @fwrite(ptr nonnull @.str.2, i64 16, i64 1, ptr %32) #18
  %34 = load ptr, ptr @stderr, align 8, !tbaa !12
  %35 = tail call i32 @fflush(ptr noundef %34)
  br label %.critedge

.critedge:                                        ; preds = %17, %27
  %36 = getelementptr inbounds nuw i8, ptr %9, i64 8
  %37 = call fastcc i64 @ZDICT_analyzeEntropy(ptr noundef nonnull %36, i64 noundef 248, i32 noundef %12, ptr noundef %4, ptr noundef %5, i32 noundef %6, ptr noundef %2, i64 noundef %3, i32 noundef %14)
  %38 = icmp ult i64 %37, -119
  %39 = add i64 %37, 8
  br i1 %38, label %40, label %55

40:                                               ; preds = %.critedge
  %41 = add i64 %39, %3
  %42 = icmp ugt i64 %41, %1
  %43 = sub i64 %1, %39
  %spec.select = select i1 %42, i64 %43, i64 %3
  %44 = icmp ult i64 %spec.select, 8
  br i1 %44, label %45, label %50

45:                                               ; preds = %40
  %46 = add nuw i64 %37, 16
  %47 = icmp ugt i64 %46, %1
  br i1 %47, label %55, label %48

48:                                               ; preds = %45
  %49 = sub nuw nsw i64 8, %spec.select
  br label %50

50:                                               ; preds = %40, %48
  %.054 = phi i64 [ %49, %48 ], [ 0, %40 ]
  %51 = add i64 %spec.select, %39
  %52 = add i64 %51, %.054
  %53 = getelementptr inbounds nuw i8, ptr %0, i64 %39
  %54 = getelementptr inbounds nuw i8, ptr %53, i64 %.054
  call void @llvm.memmove.p0.p0.i64(ptr align 1 %54, ptr align 1 %2, i64 %spec.select, i1 false)
  call void @llvm.memcpy.p0.p0.i64(ptr align 1 %0, ptr nonnull align 16 %9, i64 %39, i1 false)
  call void @llvm.memset.p0.i64(ptr align 1 %53, i8 0, i64 %.054, i1 false)
  br label %55

55:                                               ; preds = %45, %8, %.critedge, %50
  %.0 = phi i64 [ %52, %50 ], [ %37, %.critedge ], [ -70, %8 ], [ -70, %45 ]
  call void @llvm.lifetime.end.p0(i64 256, ptr nonnull %9) #15
  ret i64 %.0
}